; Function Attrs: mustprogress uwtable
define noundef zeroext i1 @_ZN3gmx30AnalysisNeighborhoodPairSearch12findNextPairEPNS_24AnalysisNeighborhoodPairE(ptr noundef nonnull readonly align 8 captures(none) dereferenceable(16) %0, ptr noundef writeonly captures(none) initializes((0, 24)) %1) local_unnamed_addr #16 align 2 {
  %3 = load ptr, ptr %0, align 8, !tbaa !67
  %4 = tail call noundef zeroext i1 @_ZN3gmx8internal34AnalysisNeighborhoodPairSearchImpl10searchNextIPFbifPKfEEEbT_(ptr noundef nonnull align 8 dereferenceable(140) %3, ptr noundef nonnull @_ZN3gmx12_GLOBAL__N_112withinActionEifPKf)
  %5 = load ptr, ptr %0, align 8, !tbaa !67
  %6 = getelementptr inbounds nuw i8, ptr %5, i64 72
  %7 = load i32, ptr %6, align 8, !tbaa !80
  %8 = icmp slt i32 %7, 0
  br i1 %8, label %9, label %10

9:                                                ; preds = %2
  %.sroa.44.0..sroa_idx.i = getelementptr inbounds nuw i8, ptr %1, i64 4
  tail call void @llvm.memset.p0.i64(ptr noundef nonnull align 4 dereferenceable(20) %.sroa.44.0..sroa_idx.i, i8 0, i64 20, i1 false)
  br label %_ZNK3gmx8internal34AnalysisNeighborhoodPairSearchImpl13initFoundPairEPNS_24AnalysisNeighborhoodPairE.exit

10:                                               ; preds = %2
  %11 = getelementptr inbounds nuw i8, ptr %5, i64 56
  %12 = load i32, ptr %11, align 8, !tbaa !78
  %13 = getelementptr inbounds nuw i8, ptr %5, i64 76
  %14 = load float, ptr %13, align 4, !tbaa !184
  %15 = getelementptr inbounds nuw i8, ptr %5, i64 80
  %16 = load float, ptr %15, align 4, !tbaa !77
  %17 = getelementptr inbounds nuw i8, ptr %5, i64 84
  %18 = load float, ptr %17, align 4, !tbaa !77
  %19 = getelementptr inbounds nuw i8, ptr %5, i64 88
  %20 = load float, ptr %19, align 4, !tbaa !77
  %.sroa.4.0..sroa_idx.i = getelementptr inbounds nuw i8, ptr %1, i64 4
  store i32 %12, ptr %.sroa.4.0..sroa_idx.i, align 4, !tbaa !39
  %.sroa.5.0..sroa_idx.i = getelementptr inbounds nuw i8, ptr %1, i64 8
  store float %14, ptr %.sroa.5.0..sroa_idx.i, align 4, !tbaa !77
  %.sroa.6.0..sroa_idx.i = getelementptr inbounds nuw i8, ptr %1, i64 12
  store float %16, ptr %.sroa.6.0..sroa_idx.i, align 4
  %.sroa.8.0..sroa_idx.i = getelementptr inbounds nuw i8, ptr %1, i64 16
  store float %18, ptr %.sroa.8.0..sroa_idx.i, align 4
  %.sroa.9.0..sroa_idx.i = getelementptr inbounds nuw i8, ptr %1, i64 20
  store float %20, ptr %.sroa.9.0..sroa_idx.i, align 4, !tbaa !48
  br label %_ZNK3gmx8internal34AnalysisNeighborhoodPairSearchImpl13initFoundPairEPNS_24AnalysisNeighborhoodPairE.exit

_ZNK3gmx8internal34AnalysisNeighborhoodPairSearchImpl13initFoundPairEPNS_24AnalysisNeighborhoodPairE.exit: ; preds = %9, %10
  %.sink.i = phi i32 [ -1, %9 ], [ %7, %10 ]
  store i32 %.sink.i, ptr %1, align 4, !tbaa !39
  ret i1 %4
}